target datalayout = "e-m:e-p270:32:32-p271:32:32-p272:64:64-i64:64-i128:128-f80:128-n8:16:32:64-S128"
target triple = "x86_64-unknown-linux-gnu"

%"class.icu_75::SortKeyByteSink" = type <{ %"class.icu_75::ByteSink", ptr, i32, i32, i32, [4 x i8] }>
%"class.icu_75::ByteSink" = type { ptr }
%"class.icu_75::CollationKeys::LevelCallback" = type { ptr }
%"class.icu_75::(anonymous namespace)::PartLevelCallback" = type { %"class.icu_75::CollationKeys::LevelCallback", ptr, i32, i32 }

; Function Attrs: mustprogress nounwind uwtable
define linkonce_odr noundef i32 @_ZNK6icu_7515SortKeyByteSink20GetRemainingCapacityEv(ptr noundef nonnull align 8 dereferenceable(28) %this) #0 comdat align 2 {
entry:
  %this.addr = alloca ptr, align 8
  store ptr %this, ptr %this.addr, align 8
  %this1 = load ptr, ptr %this.addr, align 8
  %ignore_ = getelementptr inbounds %"class.icu_75::SortKeyByteSink", ptr %this1, i32 0, i32 4
  %0 = load i32, ptr %ignore_, align 8
  %capacity_ = getelementptr inbounds %"class.icu_75::SortKeyByteSink", ptr %this1, i32 0, i32 2
  %1 = load i32, ptr %capacity_, align 8
  %add = add nsw i32 %0, %1
  %appended_ = getelementptr inbounds %"class.icu_75::SortKeyByteSink", ptr %this1, i32 0, i32 3
  %2 = load i32, ptr %appended_, align 4
  %sub = sub nsw i32 %add, %2
  ret i32 %sub
}

; Function Attrs: mustprogress nounwind uwtable
define linkonce_odr noundef signext i8 @_ZNK6icu_7515SortKeyByteSink10OverflowedEv(ptr noundef nonnull align 8 dereferenceable(28) %this) #0 comdat align 2 {
entry:
  %this.addr = alloca ptr, align 8
  store ptr %this, ptr %this.addr, align 8
  %this1 = load ptr, ptr %this.addr, align 8
  %appended_ = getelementptr inbounds %"class.icu_75::SortKeyByteSink", ptr %this1, i32 0, i32 3
  %0 = load i32, ptr %appended_, align 4
  %capacity_ = getelementptr inbounds %"class.icu_75::SortKeyByteSink", ptr %this1, i32 0, i32 2
  %1 = load i32, ptr %capacity_, align 8
  %cmp = icmp sgt i32 %0, %1
  %conv = zext i1 %cmp to i8
  ret i8 %conv
}

; Function Attrs: mustprogress uwtable
define internal noundef signext i8 @_ZN6icu_7512_GLOBAL__N_117PartLevelCallback11needToWriteENS_9Collation5LevelE(ptr noundef nonnull align 8 dereferenceable(24) %this, i32 noundef %l) unnamed_addr #1 align 2 {
entry:
  %retval = alloca i8, align 1
  %this.addr = alloca ptr, align 8
  %l.addr = alloca i32, align 4
  store ptr %this, ptr %this.addr, align 8
  store i32 %l, ptr %l.addr, align 4
  %this1 = load ptr, ptr %this.addr, align 8
  %sink = getelementptr inbounds %"class.icu_75::(anonymous namespace)::PartLevelCallback", ptr %this1, i32 0, i32 1
  %0 = load ptr, ptr %sink, align 8
  %call = call noundef signext i8 @_ZNK6icu_7515SortKeyByteSink10OverflowedEv(ptr noundef nonnull align 8 dereferenceable(28) %0)
  %tobool = icmp ne i8 %call, 0
  br i1 %tobool, label %if.else, label %if.then

if.then:                                          ; preds = %entry
  %1 = load i32, ptr %l.addr, align 4
  %level = getelementptr inbounds %"class.icu_75::(anonymous namespace)::PartLevelCallback", ptr %this1, i32 0, i32 2
  store i32 %1, ptr %level, align 8
  %sink2 = getelementptr inbounds %"class.icu_75::(anonymous namespace)::PartLevelCallback", ptr %this1, i32 0, i32 1
  %2 = load ptr, ptr %sink2, align 8
  %call3 = call noundef i32 @_ZNK6icu_7515SortKeyByteSink20GetRemainingCapacityEv(ptr noundef nonnull align 8 dereferenceable(28) %2)
  %levelCapacity = getelementptr inbounds %"class.icu_75::(anonymous namespace)::PartLevelCallback", ptr %this1, i32 0, i32 3
  store i32 %call3, ptr %levelCapacity, align 4
  store i8 1, ptr %retval, align 1
  br label %return

if.else:                                          ; preds = %entry
  store i8 0, ptr %retval, align 1
  br label %return

return:                                           ; preds = %if.else, %if.then
  %3 = load i8, ptr %retval, align 1
  ret i8 %3
}