; Function Attrs: mustprogress nofree norecurse nosync nounwind willreturn memory(read, argmem: readwrite, inaccessiblemem: none) uwtable
define internal noundef signext i8 @_ZN6icu_7512_GLOBAL__N_117PartLevelCallback11needToWriteENS_9Collation5LevelE(ptr nocapture noundef nonnull align 8 dereferenceable(24) %this, i32 noundef %l) unnamed_addr #8 align 2 {
entry:
  %sink = getelementptr inbounds i8, ptr %this, i64 8
  %0 = load ptr, ptr %sink, align 8
  %appended_.i = getelementptr inbounds i8, ptr %0, i64 20
  %1 = load i32, ptr %appended_.i, align 4
  %capacity_.i = getelementptr inbounds i8, ptr %0, i64 16
  %2 = load i32, ptr %capacity_.i, align 8
  %cmp.i.not = icmp sgt i32 %1, %2
  br i1 %cmp.i.not, label %return, label %if.then

if.then:                                          ; preds = %entry
  %level = getelementptr inbounds i8, ptr %this, i64 16
  store i32 %l, ptr %level, align 8
  %ignore_.i = getelementptr inbounds i8, ptr %0, i64 24
  %3 = load i32, ptr %ignore_.i, align 8
  %4 = load i32, ptr %capacity_.i, align 8
  %add.i = add nsw i32 %4, %3
  %5 = load i32, ptr %appended_.i, align 4
  %sub.i = sub i32 %add.i, %5
  %levelCapacity = getelementptr inbounds i8, ptr %this, i64 20
  store i32 %sub.i, ptr %levelCapacity, align 4
  br label %return

return:                                           ; preds = %entry, %if.then
  %retval.0 = phi i8 [ 1, %if.then ], [ 0, %entry ]
  ret i8 %retval.0
}